; Function Attrs: nounwind uwtable
define hidden void @zim_ArrayObject_offsetExists(ptr nocapture noundef readonly %0, ptr nocapture noundef writeonly %1) #0 {
  %3 = alloca ptr, align 8
  %4 = getelementptr inbounds i8, ptr %0, i64 44
  %5 = load i32, ptr %4, align 4
  %6 = call i32 (i32, ptr, ...) @zend_parse_parameters(i32 noundef %5, ptr noundef nonnull @.str, ptr noundef nonnull %3) #11
  %7 = icmp eq i32 %6, -1
  br i1 %7, label %8, label %11

8:                                                ; preds = %2
  %9 = load ptr, ptr getelementptr inbounds (%struct._zend_executor_globals, ptr @executor_globals, i64 0, i32 50), align 8
  %10 = icmp ne ptr %9, null
  call void @llvm.assume(i1 %10)
  br label %18

11:                                               ; preds = %2
  %12 = getelementptr inbounds i8, ptr %0, i64 32
  %13 = load ptr, ptr %12, align 8
  %14 = load ptr, ptr %3, align 8
  %15 = call fastcc zeroext i1 @spl_array_has_dimension_ex(i1 noundef zeroext false, ptr noundef %13, ptr noundef %14, i32 noundef 2)
  %16 = select i1 %15, i32 3, i32 2
  %17 = getelementptr inbounds i8, ptr %1, i64 8
  store i32 %16, ptr %17, align 8
  br label %18

18:                                               ; preds = %11, %8
  ret void
}